; Function Attrs: nounwind uwtable
define internal void @bf_const_log2_internal(ptr noundef %0, i64 noundef %1) #2 {
  %3 = alloca %struct.bf_t, align 8
  %4 = alloca %struct.bf_t, align 8
  call void @llvm.lifetime.start.p0(i64 40, ptr nonnull %3) #21
  call void @llvm.lifetime.start.p0(i64 40, ptr nonnull %4) #21
  %5 = add i64 %1, 15
  %6 = udiv i64 %5, 3
  %7 = add nuw nsw i64 %6, 1
  %8 = load ptr, ptr %0, align 8, !tbaa !28
  store ptr %8, ptr %3, align 8, !tbaa !28
  %9 = getelementptr inbounds nuw i8, ptr %3, i64 8
  store i32 0, ptr %9, align 8, !tbaa !30
  %10 = getelementptr inbounds nuw i8, ptr %3, i64 16
  store i64 -9223372036854775808, ptr %10, align 8, !tbaa !31
  %11 = getelementptr inbounds nuw i8, ptr %3, i64 24
  call void @llvm.memset.p0.i64(ptr noundef nonnull align 8 dereferenceable(16) %11, i8 0, i64 16, i1 false)
  store ptr %8, ptr %4, align 8, !tbaa !28
  %12 = getelementptr inbounds nuw i8, ptr %4, i64 8
  store i32 0, ptr %12, align 8, !tbaa !30
  %13 = getelementptr inbounds nuw i8, ptr %4, i64 16
  store i64 -9223372036854775808, ptr %13, align 8, !tbaa !31
  %14 = getelementptr inbounds nuw i8, ptr %4, i64 24
  call void @llvm.memset.p0.i64(ptr noundef nonnull align 8 dereferenceable(16) %14, i8 0, i64 16, i1 false)
  call fastcc void @bf_const_log2_rec(ptr noundef nonnull %0, ptr noundef %3, ptr noundef %4, i64 noundef 0, i64 noundef %7, i32 noundef 0)
  %15 = call fastcc i32 @bf_op2(ptr noundef nonnull %0, ptr noundef nonnull %0, ptr noundef nonnull %4, i64 noundef %1, i32 noundef 0, ptr noundef nonnull @__bf_div)
  %16 = load ptr, ptr %3, align 8, !tbaa !28
  %.not.i = icmp eq ptr %16, null
  br i1 %.not.i, label %bf_delete.exit, label %17

17:                                               ; preds = %2
  %18 = getelementptr inbounds nuw i8, ptr %3, i64 32
  %19 = load ptr, ptr %18, align 8, !tbaa !29
  %.not6.i = icmp eq ptr %19, null
  br i1 %.not6.i, label %bf_delete.exit, label %20

20:                                               ; preds = %17
  %.val.i = load ptr, ptr %16, align 8, !tbaa !19
  %21 = getelementptr i8, ptr %16, i64 8
  %.val7.i = load ptr, ptr %21, align 8, !tbaa !7
  %22 = call ptr %.val7.i(ptr noundef %.val.i, ptr noundef nonnull %19, i64 noundef 0) #21
  br label %bf_delete.exit

bf_delete.exit:                                   ; preds = %2, %17, %20
  %23 = load ptr, ptr %4, align 8, !tbaa !28
  %.not.i15 = icmp eq ptr %23, null
  br i1 %.not.i15, label %bf_delete.exit19, label %24

24:                                               ; preds = %bf_delete.exit
  %25 = getelementptr inbounds nuw i8, ptr %4, i64 32
  %26 = load ptr, ptr %25, align 8, !tbaa !29
  %.not6.i16 = icmp eq ptr %26, null
  br i1 %.not6.i16, label %bf_delete.exit19, label %27

27:                                               ; preds = %24
  %.val.i17 = load ptr, ptr %23, align 8, !tbaa !19
  %28 = getelementptr i8, ptr %23, i64 8
  %.val7.i18 = load ptr, ptr %28, align 8, !tbaa !7
  %29 = call ptr %.val7.i18(ptr noundef %.val.i17, ptr noundef nonnull %26, i64 noundef 0) #21
  br label %bf_delete.exit19

bf_delete.exit19:                                 ; preds = %bf_delete.exit, %24, %27
  call void @llvm.lifetime.end.p0(i64 40, ptr nonnull %4) #21
  call void @llvm.lifetime.end.p0(i64 40, ptr nonnull %3) #21
  ret void
}